target datalayout = "e-m:e-p270:32:32-p271:32:32-p272:64:64-i64:64-i128:128-f80:128-n8:16:32:64-S128"
target triple = "x86_64-pc-linux-gnu"

%struct.AVCodecContext = type { ptr, i32, i32, ptr, i32, i32, ptr, ptr, ptr, i64, i32, i32, ptr, i32, %struct.AVRational, %struct.AVRational, %struct.AVRational, i32, i32, i32, i32, i32, %struct.AVRational, i32, i32, i32, i32, i32, i32, i32, i32, i32, i32, i32, ptr, ptr, i32, float, float, float, float, float, float, float, float, float, i32, i32, i32, i32, i32, i32, i32, i32, i32, i32, i32, i32, ptr, ptr, ptr, i32, i32, i32, i32, i32, i32, i32, i32, i32, i32, %struct.AVChannelLayout, i32, i32, i32, i32, i32, i32, i32, i32, ptr, i32, i32, i32, float, float, i32, i32, i32, i32, i32, ptr, i64, i64, float, float, i32, i32, ptr, ptr, i32, i32, i32, i32, i32, ptr, ptr, ptr, ptr, i32, i32, [8 x i64], i32, i32, i32, i32, i32, i32, i32, ptr, ptr, i32, i32, i32, i32, i32, i32, i32, i32, i32, i32, ptr, ptr, i32, i32, ptr, ptr, ptr, ptr, i32, i32, i64, i32, i32, i64, ptr, i64, ptr, i32, ptr, i32 }
%struct.AVRational = type { i32, i32 }
%struct.AVChannelLayout = type { i32, i32, %union.anon, ptr }
%union.anon = type { i64 }
%struct.AVCodecInternal = type { i32, i32, i32, ptr, ptr, ptr, ptr, ptr, ptr, ptr, i32, ptr, ptr, ptr, i32, i32, ptr, i32, ptr, ptr, i32, i32 }
%struct.ThreadContext = type { ptr, %union.pthread_mutex_t, %union.pthread_cond_t, i32, i32, [66 x %struct.Task], %union.pthread_mutex_t, %union.pthread_cond_t, i32, i32, i32, [64 x i64], i32 }
%struct.Task = type { ptr, ptr, i32, i32, i32 }
%union.pthread_mutex_t = type { %struct.__pthread_mutex_s }
%struct.__pthread_mutex_s = type { i32, i32, i32, i32, i32, i16, i16, %struct.__pthread_internal_list }
%struct.__pthread_internal_list = type { ptr, ptr }
%union.pthread_cond_t = type { %struct.__pthread_cond_s }
%struct.__pthread_cond_s = type { %union.__atomic_wide_counter, %union.__atomic_wide_counter, [2 x i32], [2 x i32], i32, i32, [2 x i32] }
%union.__atomic_wide_counter = type { i64 }

; Function Attrs: nounwind uwtable
define i32 @ff_thread_video_encode_frame(ptr noundef %0, ptr noundef %1, ptr noundef %2, ptr noundef %3) #5 {
  %5 = alloca i32, align 4
  %6 = alloca ptr, align 8
  %7 = alloca ptr, align 8
  %8 = alloca ptr, align 8
  %9 = alloca ptr, align 8
  %10 = alloca ptr, align 8
  %11 = alloca ptr, align 8
  %12 = alloca i32, align 4
  store ptr %0, ptr %6, align 8, !tbaa !4
  store ptr %1, ptr %7, align 8, !tbaa !76
  store ptr %2, ptr %8, align 8, !tbaa !75
  store ptr %3, ptr %9, align 8, !tbaa !82
  call void @llvm.lifetime.start.p0(i64 8, ptr %10) #6
  %13 = load ptr, ptr %6, align 8, !tbaa !4
  %14 = getelementptr inbounds nuw %struct.AVCodecContext, ptr %13, i32 0, i32 7
  %15 = load ptr, ptr %14, align 8, !tbaa !43
  %16 = getelementptr inbounds nuw %struct.AVCodecInternal, ptr %15, i32 0, i32 11
  %17 = load ptr, ptr %16, align 8, !tbaa !44
  store ptr %17, ptr %10, align 8, !tbaa !51
  call void @llvm.lifetime.start.p0(i64 8, ptr %11) #6
  %18 = load ptr, ptr %8, align 8, !tbaa !75
  %19 = icmp ne ptr %18, null
  br i1 %19, label %20, label %50

20:                                               ; preds = %4
  %21 = load ptr, ptr %10, align 8, !tbaa !51
  %22 = getelementptr inbounds nuw %struct.ThreadContext, ptr %21, i32 0, i32 5
  %23 = load ptr, ptr %10, align 8, !tbaa !51
  %24 = getelementptr inbounds nuw %struct.ThreadContext, ptr %23, i32 0, i32 9
  %25 = load i32, ptr %24, align 4, !tbaa !73
  %26 = zext i32 %25 to i64
  %27 = getelementptr inbounds nuw [66 x %struct.Task], ptr %22, i64 0, i64 %26
  %28 = getelementptr inbounds nuw %struct.Task, ptr %27, i32 0, i32 0
  %29 = load ptr, ptr %28, align 8, !tbaa !56
  %30 = load ptr, ptr %8, align 8, !tbaa !75
  call void @av_frame_move_ref(ptr noundef %29, ptr noundef %30)
  %31 = load ptr, ptr %10, align 8, !tbaa !51
  %32 = getelementptr inbounds nuw %struct.ThreadContext, ptr %31, i32 0, i32 1
  %33 = call i32 @pthread_mutex_lock(ptr noundef %32) #6
  %34 = load ptr, ptr %10, align 8, !tbaa !51
  %35 = getelementptr inbounds nuw %struct.ThreadContext, ptr %34, i32 0, i32 9
  %36 = load i32, ptr %35, align 4, !tbaa !73
  %37 = add i32 %36, 1
  %38 = load ptr, ptr %10, align 8, !tbaa !51
  %39 = getelementptr inbounds nuw %struct.ThreadContext, ptr %38, i32 0, i32 4
  %40 = load i32, ptr %39, align 4, !tbaa !55
  %41 = urem i32 %37, %40
  %42 = load ptr, ptr %10, align 8, !tbaa !51
  %43 = getelementptr inbounds nuw %struct.ThreadContext, ptr %42, i32 0, i32 9
  store i32 %41, ptr %43, align 4, !tbaa !73
  %44 = load ptr, ptr %10, align 8, !tbaa !51
  %45 = getelementptr inbounds nuw %struct.ThreadContext, ptr %44, i32 0, i32 2
  %46 = call i32 @pthread_cond_signal(ptr noundef %45) #6
  %47 = load ptr, ptr %10, align 8, !tbaa !51
  %48 = getelementptr inbounds nuw %struct.ThreadContext, ptr %47, i32 0, i32 1
  %49 = call i32 @pthread_mutex_unlock(ptr noundef %48) #6
  br label %50

50:                                               ; preds = %20, %4
  %51 = load ptr, ptr %10, align 8, !tbaa !51
  %52 = getelementptr inbounds nuw %struct.ThreadContext, ptr %51, i32 0, i32 5
  %53 = load ptr, ptr %10, align 8, !tbaa !51
  %54 = getelementptr inbounds nuw %struct.ThreadContext, ptr %53, i32 0, i32 10
  %55 = load i32, ptr %54, align 8, !tbaa !83
  %56 = zext i32 %55 to i64
  %57 = getelementptr inbounds nuw [66 x %struct.Task], ptr %52, i64 0, i64 %56
  store ptr %57, ptr %11, align 8, !tbaa !51
  %58 = load ptr, ptr %10, align 8, !tbaa !51
  %59 = getelementptr inbounds nuw %struct.ThreadContext, ptr %58, i32 0, i32 6
  %60 = call i32 @pthread_mutex_lock(ptr noundef %59) #6
  %61 = load ptr, ptr %10, align 8, !tbaa !51
  %62 = getelementptr inbounds nuw %struct.ThreadContext, ptr %61, i32 0, i32 9
  %63 = load i32, ptr %62, align 4, !tbaa !73
  %64 = load ptr, ptr %10, align 8, !tbaa !51
  %65 = getelementptr inbounds nuw %struct.ThreadContext, ptr %64, i32 0, i32 10
  %66 = load i32, ptr %65, align 8, !tbaa !83
  %67 = icmp eq i32 %63, %66
  br i1 %67, label %96, label %68

68:                                               ; preds = %50
  %69 = load ptr, ptr %8, align 8, !tbaa !75
  %70 = icmp ne ptr %69, null
  br i1 %70, label %71, label %100

71:                                               ; preds = %68
  %72 = load ptr, ptr %11, align 8, !tbaa !51
  %73 = getelementptr inbounds nuw %struct.Task, ptr %72, i32 0, i32 3
  %74 = load i32, ptr %73, align 4, !tbaa !78
  %75 = icmp ne i32 %74, 0
  br i1 %75, label %100, label %76

76:                                               ; preds = %71
  %77 = load ptr, ptr %10, align 8, !tbaa !51
  %78 = getelementptr inbounds nuw %struct.ThreadContext, ptr %77, i32 0, i32 9
  %79 = load i32, ptr %78, align 4, !tbaa !73
  %80 = load ptr, ptr %10, align 8, !tbaa !51
  %81 = getelementptr inbounds nuw %struct.ThreadContext, ptr %80, i32 0, i32 10
  %82 = load i32, ptr %81, align 8, !tbaa !83
  %83 = sub i32 %79, %82
  %84 = load ptr, ptr %10, align 8, !tbaa !51
  %85 = getelementptr inbounds nuw %struct.ThreadContext, ptr %84, i32 0, i32 4
  %86 = load i32, ptr %85, align 4, !tbaa !55
  %87 = add i32 %83, %86
  %88 = load ptr, ptr %10, align 8, !tbaa !51
  %89 = getelementptr inbounds nuw %struct.ThreadContext, ptr %88, i32 0, i32 4
  %90 = load i32, ptr %89, align 4, !tbaa !55
  %91 = urem i32 %87, %90
  %92 = load ptr, ptr %6, align 8, !tbaa !4
  %93 = getelementptr inbounds nuw %struct.AVCodecContext, ptr %92, i32 0, i32 116
  %94 = load i32, ptr %93, align 8, !tbaa !38
  %95 = icmp ule i32 %91, %94
  br i1 %95, label %96, label %100

96:                                               ; preds = %76, %50
  %97 = load ptr, ptr %10, align 8, !tbaa !51
  %98 = getelementptr inbounds nuw %struct.ThreadContext, ptr %97, i32 0, i32 6
  %99 = call i32 @pthread_mutex_unlock(ptr noundef %98) #6
  store i32 0, ptr %5, align 4
  store i32 1, ptr %12, align 4
  br label %140

100:                                              ; preds = %76, %71, %68
  br label %101

101:                                              ; preds = %107, %100
  %102 = load ptr, ptr %11, align 8, !tbaa !51
  %103 = getelementptr inbounds nuw %struct.Task, ptr %102, i32 0, i32 3
  %104 = load i32, ptr %103, align 4, !tbaa !78
  %105 = icmp ne i32 %104, 0
  %106 = xor i1 %105, true
  br i1 %106, label %107, label %113

107:                                              ; preds = %101
  %108 = load ptr, ptr %10, align 8, !tbaa !51
  %109 = getelementptr inbounds nuw %struct.ThreadContext, ptr %108, i32 0, i32 7
  %110 = load ptr, ptr %10, align 8, !tbaa !51
  %111 = getelementptr inbounds nuw %struct.ThreadContext, ptr %110, i32 0, i32 6
  %112 = call i32 @pthread_cond_wait(ptr noundef %109, ptr noundef %111)
  br label %101, !llvm.loop !84

113:                                              ; preds = %101
  %114 = load ptr, ptr %10, align 8, !tbaa !51
  %115 = getelementptr inbounds nuw %struct.ThreadContext, ptr %114, i32 0, i32 6
  %116 = call i32 @pthread_mutex_unlock(ptr noundef %115) #6
  %117 = load ptr, ptr %11, align 8, !tbaa !51
  %118 = getelementptr inbounds nuw %struct.Task, ptr %117, i32 0, i32 3
  store i32 0, ptr %118, align 4, !tbaa !78
  %119 = load ptr, ptr %7, align 8, !tbaa !76
  %120 = load ptr, ptr %11, align 8, !tbaa !51
  %121 = getelementptr inbounds nuw %struct.Task, ptr %120, i32 0, i32 1
  %122 = load ptr, ptr %121, align 8, !tbaa !58
  call void @av_packet_move_ref(ptr noundef %119, ptr noundef %122)
  %123 = load ptr, ptr %11, align 8, !tbaa !51
  %124 = getelementptr inbounds nuw %struct.Task, ptr %123, i32 0, i32 4
  %125 = load i32, ptr %124, align 8, !tbaa !85
  %126 = load ptr, ptr %9, align 8, !tbaa !82
  store i32 %125, ptr %126, align 4, !tbaa !9
  %127 = load ptr, ptr %10, align 8, !tbaa !51
  %128 = getelementptr inbounds nuw %struct.ThreadContext, ptr %127, i32 0, i32 10
  %129 = load i32, ptr %128, align 8, !tbaa !83
  %130 = add i32 %129, 1
  %131 = load ptr, ptr %10, align 8, !tbaa !51
  %132 = getelementptr inbounds nuw %struct.ThreadContext, ptr %131, i32 0, i32 4
  %133 = load i32, ptr %132, align 4, !tbaa !55
  %134 = urem i32 %130, %133
  %135 = load ptr, ptr %10, align 8, !tbaa !51
  %136 = getelementptr inbounds nuw %struct.ThreadContext, ptr %135, i32 0, i32 10
  store i32 %134, ptr %136, align 8, !tbaa !83
  %137 = load ptr, ptr %11, align 8, !tbaa !51
  %138 = getelementptr inbounds nuw %struct.Task, ptr %137, i32 0, i32 2
  %139 = load i32, ptr %138, align 8, !tbaa !77
  store i32 %139, ptr %5, align 4
  store i32 1, ptr %12, align 4
  br label %140

140:                                              ; preds = %113, %96
  call void @llvm.lifetime.end.p0(i64 8, ptr %11) #6
  call void @llvm.lifetime.end.p0(i64 8, ptr %10) #6
  %141 = load i32, ptr %5, align 4
  ret i32 %141
}