; Function Attrs: nounwind uwtable
define i32 @ff_thread_video_encode_frame(ptr noundef readonly captures(none) %0, ptr noundef %1, ptr noundef %2, ptr noundef writeonly captures(none) %3) local_unnamed_addr #5 {
  %5 = getelementptr inbounds nuw i8, ptr %0, i64 40
  %6 = load ptr, ptr %5, align 8, !tbaa !41
  %7 = getelementptr inbounds nuw i8, ptr %6, i64 80
  %8 = load ptr, ptr %7, align 8, !tbaa !42
  %.not = icmp eq ptr %2, null
  br i1 %.not, label %26, label %9

9:                                                ; preds = %4
  %10 = getelementptr inbounds nuw i8, ptr %8, i64 104
  %11 = getelementptr inbounds nuw i8, ptr %8, i64 2308
  %12 = load i32, ptr %11, align 4, !tbaa !70
  %13 = zext i32 %12 to i64
  %14 = getelementptr inbounds nuw [66 x %struct.Task], ptr %10, i64 0, i64 %13
  %15 = load ptr, ptr %14, align 8, !tbaa !55
  tail call void @av_frame_move_ref(ptr noundef %15, ptr noundef nonnull %2) #7
  %16 = getelementptr inbounds nuw i8, ptr %8, i64 8
  %17 = tail call i32 @pthread_mutex_lock(ptr noundef nonnull %16) #7
  %18 = load i32, ptr %11, align 4, !tbaa !70
  %19 = add i32 %18, 1
  %20 = getelementptr inbounds nuw i8, ptr %8, i64 100
  %21 = load i32, ptr %20, align 4, !tbaa !52
  %22 = urem i32 %19, %21
  store i32 %22, ptr %11, align 4, !tbaa !70
  %23 = getelementptr inbounds nuw i8, ptr %8, i64 48
  %24 = tail call i32 @pthread_cond_signal(ptr noundef nonnull %23) #7
  %25 = tail call i32 @pthread_mutex_unlock(ptr noundef nonnull %16) #7
  br label %26

26:                                               ; preds = %9, %4
  %27 = getelementptr inbounds nuw i8, ptr %8, i64 104
  %28 = getelementptr inbounds nuw i8, ptr %8, i64 2312
  %29 = load i32, ptr %28, align 8, !tbaa !77
  %30 = zext i32 %29 to i64
  %31 = getelementptr inbounds nuw [66 x %struct.Task], ptr %27, i64 0, i64 %30
  %32 = getelementptr inbounds nuw i8, ptr %8, i64 2216
  %33 = tail call i32 @pthread_mutex_lock(ptr noundef nonnull %32) #7
  %34 = getelementptr inbounds nuw i8, ptr %8, i64 2308
  %35 = load i32, ptr %34, align 4, !tbaa !70
  %36 = load i32, ptr %28, align 8, !tbaa !77
  %37 = icmp eq i32 %35, %36
  br i1 %37, label %51, label %38

38:                                               ; preds = %26
  %.phi.trans.insert = getelementptr inbounds nuw i8, ptr %31, i64 20
  %.pre = load i32, ptr %.phi.trans.insert, align 4, !tbaa !73
  %39 = icmp eq i32 %.pre, 0
  br i1 %.not, label %53, label %40

40:                                               ; preds = %38
  br i1 %39, label %42, label %.thread46

.thread46:                                        ; preds = %40
  %41 = getelementptr inbounds nuw i8, ptr %31, i64 20
  br label %._crit_edge

42:                                               ; preds = %40
  %43 = sub i32 %35, %36
  %44 = getelementptr inbounds nuw i8, ptr %8, i64 100
  %45 = load i32, ptr %44, align 4, !tbaa !52
  %46 = add i32 %43, %45
  %47 = urem i32 %46, %45
  %48 = getelementptr inbounds nuw i8, ptr %0, i64 656
  %49 = load i32, ptr %48, align 8, !tbaa !37
  %.not41 = icmp ugt i32 %47, %49
  br i1 %.not41, label %.thread, label %51

.thread:                                          ; preds = %42
  %50 = getelementptr inbounds nuw i8, ptr %31, i64 20
  br label %.lr.ph

51:                                               ; preds = %42, %26
  %52 = tail call i32 @pthread_mutex_unlock(ptr noundef nonnull %32) #7
  br label %73

53:                                               ; preds = %38
  %54 = getelementptr inbounds nuw i8, ptr %31, i64 20
  br i1 %39, label %.lr.ph, label %._crit_edge

.lr.ph:                                           ; preds = %.thread, %53
  %55 = phi ptr [ %50, %.thread ], [ %54, %53 ]
  %56 = getelementptr inbounds nuw i8, ptr %8, i64 2256
  br label %57

57:                                               ; preds = %.lr.ph, %57
  %58 = tail call i32 @pthread_cond_wait(ptr noundef nonnull %56, ptr noundef nonnull %32) #7
  %59 = load i32, ptr %55, align 4, !tbaa !73
  %.not42 = icmp eq i32 %59, 0
  br i1 %.not42, label %57, label %._crit_edge, !llvm.loop !78

._crit_edge:                                      ; preds = %57, %.thread46, %53
  %60 = phi ptr [ %54, %53 ], [ %41, %.thread46 ], [ %55, %57 ]
  %61 = tail call i32 @pthread_mutex_unlock(ptr noundef nonnull %32) #7
  store i32 0, ptr %60, align 4, !tbaa !73
  %62 = getelementptr inbounds nuw i8, ptr %31, i64 8
  %63 = load ptr, ptr %62, align 8, !tbaa !57
  tail call void @av_packet_move_ref(ptr noundef %1, ptr noundef %63) #7
  %64 = getelementptr inbounds nuw i8, ptr %31, i64 24
  %65 = load i32, ptr %64, align 8, !tbaa !79
  store i32 %65, ptr %3, align 4, !tbaa !80
  %66 = load i32, ptr %28, align 8, !tbaa !77
  %67 = add i32 %66, 1
  %68 = getelementptr inbounds nuw i8, ptr %8, i64 100
  %69 = load i32, ptr %68, align 4, !tbaa !52
  %70 = urem i32 %67, %69
  store i32 %70, ptr %28, align 8, !tbaa !77
  %71 = getelementptr inbounds nuw i8, ptr %31, i64 16
  %72 = load i32, ptr %71, align 8, !tbaa !72
  br label %73

73:                                               ; preds = %._crit_edge, %51
  %.0 = phi i32 [ 0, %51 ], [ %72, %._crit_edge ]
  ret i32 %.0
}